(lp0
(dp1
Vdomain
p2
V.baidu.com
p3
sVname
p4
VH_PS_PSSID
p5
sVvalue
p6
V1468_21127_20697_20928
p7
sVpath
p8
V/
p9
sVhttpOnly
p10
I00
sVsecure
p11
I00
sa(dp12
Vdomain
p13
V.baidu.com
p14
sVsecure
p15
I00
sVvalue
p16
V896B1DB214C57ED04A7071E983473738:FG=1
p17
sVexpiry
p18
F3664936507.541868
sVpath
p19
g9
sVhttpOnly
p20
I00
sVname
p21
VBAIDUID
p22
sa(dp23
Vdomain
p24
V.tieba.baidu.com
p25
sVsecure
p26
I00
sVvalue
p27
Vcee2d6fee948bc426fd71b2e
p28
sVexpiry
p29
F1609430399.263328
sVpath
p30
g9
sVhttpOnly
p31
I00
sVname
p32
VTIEBA_USERTYPE
p33
sa(dp34
Vdomain
p35
V.tieba.baidu.com
p36
sVsecure
p37
I00
sVvalue
p38
V512142464335555c730a7106
p39
sVexpiry
p40
F1609430399.298018
sVpath
p41
g9
sVhttpOnly
p42
I00
sVname
p43
VTIEBAUID
p44
sa(dp45
Vdomain
p46
V.baidu.com
p47
sVsecure
p48
I00
sVvalue
p49
V1517452860
p50
sVexpiry
p51
F3664936507.541959
sVpath
p52
g9
sVhttpOnly
p53
I00
sVname
p54
VPSTM
p55
sa(dp56
Vdomain
p57
V.baidu.com
p58
sVsecure
p59
I00
sVvalue
p60
V896B1DB214C57ED04A7071E983473738
p61
sVexpiry
p62
F3664936507.541923
sVpath
p63
g9
sVhttpOnly
p64
I00
sVname
p65
VBIDUPSID
p66
sa(dp67
Vdomain
p68
V.baidu.com
p69
sVsecure
p70
I00
sVvalue
p71
V1d8169de9a3b131cadd8c4a3d4601752
p72
sVexpiry
p73
L2556057600L
sVpath
p74
g9
sVhttpOnly
p75
I00
sVname
p76
VFP_UID
p77
sa(dp78
Vdomain
p79
V.baidu.com
p80
sVsecure
p81
I00
sVvalue
p82
VXgyVGU0RkN4WlpkZVJTUVVOMWFHVUtudE9YQTdKb2xrbH5GQ2xvLWJaNU9DNXBhQVFBQUFBJCQAAAAAAAAAAAEAAACPIk~Oc29tZXB5dGhvbgAAAAAAAAAAAAAAAAAAAAAAAAAAAAAAAAAAAAAAAAAAAAAAAAAAAAAAAAAAAAAAAAAAAAAAAE5-clpOfnJaU
p83
sVexpiry
p84
F1776652878.623092
sVpath
p85
g9
sVhttpOnly
p86
I01
sVname
p87
VBDUSS
p88
sa(dp89
Vdomain
p90
V.tieba.baidu.com
p91
sVsecure
p92
I00
sVvalue
p93
V40539d6b84d76182d49c05b67d35b70f4eee376c1c496313ed151fbe6a0b148e
p94
sVexpiry
p95
F1520044881.461115
sVpath
p96
g9
sVhttpOnly
p97
I01
sVname
p98
VSTOKEN
p99
sa(dp100
Vdomain
p101
Vtieba.baidu.com
p102
sVname
p103
Vwise_device
p104
sVvalue
p105
V0
p106
sVpath
p107
g9
sVhttpOnly
p108
I00
sVsecure
p109
I00
sa(dp110
Vdomain
p111
Vtieba.baidu.com
p112
sVsecure
p113
I00
sVvalue
p114
V1517452883252
p115
sVexpiry
p116
I1643683283
sVpath
p117
g9
sVhttpOnly
p118
I00
sVname
p119
Vbdshare_firstime
p120
sa(dp121
Vdomain
p122
V.tieba.baidu.com
p123
sVsecure
p124
I00
sVvalue
p125
V1517452884
p126
sVexpiry
p127
I1548988883
sVpath
p128
g9
sVhttpOnly
p129
I00
sVname
p130
VHm_lvt_98b9d8c2fd6608d564bf2ac2ae642948
p131
sa(dp132
Vdomain
p133
V.tieba.baidu.com
p134
sVname
p135
VHm_lpvt_98b9d8c2fd6608d564bf2ac2ae642948
p136
sVvalue
p137
V1517452884
p138
sVpath
p139
g9
sVhttpOnly
p140
I00
sVsecure
p141
I00
sa.