(lp0
(dp1
Vdomain
p2
V.baidu.com
p3
sVname
p4
VH_PS_PSSID
p5
sVvalue
p6
V1447_21126_17001_22159
p7
sVpath
p8
V/
p9
sVhttpOnly
p10
I00
sVsecure
p11
I00
sa(dp12
Vdomain
p13
V.baidu.com
p14
sVsecure
p15
I00
sVvalue
p16
V12EC42563D49F1E9BC3CDCC2FC191827:FG=1
p17
sVexpiry
p18
F3664690441.084422
sVpath
p19
g9
sVhttpOnly
p20
I00
sVname
p21
VBAIDUID
p22
sa(dp23
Vdomain
p24
V.baidu.com
p25
sVsecure
p26
I00
sVvalue
p27
V1517206795
p28
sVexpiry
p29
F3664690441.084503
sVpath
p30
g9
sVhttpOnly
p31
I00
sVname
p32
VPSTM
p33
sa(dp34
Vdomain
p35
V.baidu.com
p36
sVsecure
p37
I00
sVvalue
p38
V12EC42563D49F1E9BC3CDCC2FC191827
p39
sVexpiry
p40
F3664690441.084476
sVpath
p41
g9
sVhttpOnly
p42
I00
sVname
p43
VBIDUPSID
p44
sa(dp45
Vdomain
p46
V.baidu.com
p47
sVsecure
p48
I00
sVvalue
p49
V13092797d4742df685c2354e9c92d390
p50
sVexpiry
p51
L2556057600L
sVpath
p52
g9
sVhttpOnly
p53
I00
sVname
p54
VFP_UID
p55
sa(dp56
Vdomain
p57
Vwww.baidu.com
p58
sVname
p59
VBD_HOME
p60
sVvalue
p61
V0
p62
sVpath
p63
g9
sVhttpOnly
p64
I00
sVsecure
p65
I00
sa(dp66
Vdomain
p67
V.baidu.com
p68
sVsecure
p69
I00
sVvalue
p70
V3Y2cUY0aS1Od0RrQ3QzQlNEbjR4dU5mdWJZLVZOOVN0eVE5bHdnWWw2b2RTcFphQVFBQUFBJCQAAAAAAAAAAAEAAACPIk~Oc29tZXB5dGhvbgAAAAAAAAAAAAAAAAAAAAAAAAAAAAAAAAAAAAAAAAAAAAAAAAAAAAAAAAAAAAAAAAAAAAAAAB29blodvW5ab
p71
sVexpiry
p72
F1776406812.190268
sVpath
p73
g9
sVhttpOnly
p74
I01
sVname
p75
VBDUSS
p76
sa(dp77
Vdomain
p78
Vwww.baidu.com
p79
sVsecure
p80
I00
sVvalue
p81
V12314753
p82
sVexpiry
p83
I1518070794
sVpath
p84
g9
sVhttpOnly
p85
I00
sVname
p86
VBD_UPN
p87
sa.