ccopy_reg
_reconstructor
p0
(crequests.models
Response
p1
c__builtin__
object
p2
Ntp3
Rp4
(dp5
S'cookies'
p6
g0
(crequests.cookies
RequestsCookieJar
p7
g2
Ntp8
Rp9
(dp10
S'_now'
p11
I1516906972
sS'_policy'
p12
(icookielib
DefaultCookiePolicy
p13
(dp14
S'strict_rfc2965_unverifiable'
p15
I01
sS'strict_ns_domain'
p16
I0
sS'_allowed_domains'
p17
NsS'rfc2109_as_netscape'
p18
NsS'rfc2965'
p19
I00
sS'strict_domain'
p20
I00
sg11
I1516906972
sS'strict_ns_set_path'
p21
I00
sS'strict_ns_unverifiable'
p22
I00
sS'strict_ns_set_initial_dollar'
p23
I00
sS'hide_cookie2'
p24
I00
sS'_blocked_domains'
p25
(tsS'netscape'
p26
I01
sbsS'_cookies'
p27
(dp28
S'.tieba.baidu.com'
p29
(dp30
S'/'
p31
(dp32
S'TIEBAUID'
p33
(icookielib
Cookie
p34
(dp35
S'comment'
p36
NsS'domain'
p37
g29
sS'name'
p38
g33
sS'domain_initial_dot'
p39
I00
sS'expires'
p40
I1609430399
sS'value'
p41
S'512142464335555c730a7106'
p42
sS'domain_specified'
p43
I01
sS'_rest'
p44
(dp45
sS'version'
p46
I0
sS'port_specified'
p47
I00
sS'rfc2109'
p48
I00
sS'discard'
p49
I00
sS'path_specified'
p50
I01
sS'path'
p51
g31
sS'port'
p52
NsS'comment_url'
p53
NsS'secure'
p54
I00
sbssssbsS'_content'
p55
S''
p56
sS'encoding'
p57
S'UTF-8'
p58
sS'url'
p59
Vhttp://tieba.baidu.com/p/5465046117
p60
sS'status_code'
p61
I302
sS'request'
p62
g0
(crequests.models
PreparedRequest
p63
g2
Ntp64
Rp65
(dp66
S'body'
p67
Nsg59
S'http://tieba.baidu.com/p/5465046117'
p68
sS'hooks'
p69
(dp70
S'response'
p71
(lp72
ssS'headers'
p73
g0
(crequests.structures
CaseInsensitiveDict
p74
g2
Ntp75
Rp76
(dp77
S'_store'
p78
curllib3.packages.ordered_dict
OrderedDict
p79
((lp80
(lp81
S'connection'
p82
a(S'Connection'
p83
S'keep-alive'
p84
tp85
aa(lp86
S'accept-encoding'
p87
a(S'Accept-Encoding'
p88
S'gzip, deflate'
p89
tp90
aa(lp91
S'accept'
p92
a(S'Accept'
p93
S'*/*'
p94
tp95
aa(lp96
S'user-agent'
p97
a(S'User-Agent'
p98
S'Mozilla/5.0 (Windows NT 10.0; WOW64) AppleWebKit/537.36 (KHTML, like Gecko) Chrome/64.0.3282.119 Safari/537.36'
p99
tp100
aa(lp101
S'cookie'
p102
a(S'Cookie'
p103
VH_PS_PSSID=1456_21111_20927;BAIDUID=1D5ED363A508DECEC4B60CB9C049D03A:FG=1;PSTM=1516931991;BIDUPSID=1D5ED363A508DECEC4B60CB9C049D03A;FP_UID=b90a98386223a190908c4aef82d88d1c;BD_HOME=0;BDUSS=VnZG45RnZxQW1FY3VJOXB4cGRWdHpRQX5VMjNLWUhXfmMwTjJhbldlZXBHSkphQVFBQUFBJCQAAAAAAAAAAAEAAACPIk~Oc29tZXB5dGhvbgAAAAAAAAAAAAAAAAAAAAAAAAAAAAAAAAAAAAAAAAAAAAAAAAAAAAAAAAAAAAAAAAAAAAAAAKmLalqpi2paZ2;BD_UPN=12314753;
p104
tp105
aa(lp106
S'host'
p107
a(S'Host'
p108
S'tieba.baidu.com'
p109
tp110
aa(lp111
S'accept-language'
p112
a(S'Accept-Language'
p113
S'zh-CN,zh;q=0.9'
p114
tp115
aatp116
Rp117
sbsS'_body_position'
p118
Nsg27
g0
(g7
g2
Ntp119
Rp120
(dp121
g11
I1516906972
sg12
(icookielib
DefaultCookiePolicy
p122
(dp123
g15
I01
sg16
I0
sg17
Nsg18
Nsg19
I00
sg20
I00
sg11
I1516906972
sg21
I00
sg22
I00
sg23
I00
sg24
I00
sg25
(tsg26
I01
sbsg27
(dp124
sbsS'method'
p125
S'GET'
p126
sbsS'elapsed'
p127
cdatetime
timedelta
p128
(I0
I0
I307764
tp129
Rp130
sg73
g0
(g74
g2
Ntp131
Rp132
(dp133
g78
g79
((lp134
(lp135
S'connection'
p136
a(S'Connection'
p137
S'keep-alive'
p138
tp139
aa(lp140
S'content-type'
p141
a(S'Content-Type'
p142
S'text/html; charset=UTF-8'
p143
tp144
aa(lp145
S'date'
p146
a(S'Date'
p147
S'Fri, 26 Jan 2018 03:02:52 GMT'
p148
tp149
aa(lp150
S'location'
p151
a(S'Location'
p152
S'https://passport.baidu.com/v3/login/api/auth/?tpl=tb&jump=&return_type=3&u=http%3A%2F%2Ftieba.baidu.com%2Fp%2F5465046117'
p153
tp154
aa(lp155
S'server'
p156
a(S'Server'
p157
S'Apache'
p158
tp159
aa(lp160
S'set-cookie'
p161
a(S'Set-Cookie'
p162
S'TIEBAUID=512142464335555c730a7106; expires=Thu, 31-Dec-2020 15:59:59 GMT; path=/; domain=tieba.baidu.com'
p163
tp164
aa(lp165
S'tracecode'
p166
a(S'Tracecode'
p167
S'01727632930823443978012611, 01727632930708363018012611'
p168
tp169
aa(lp170
S'x-bd-id'
p171
a(S'X-Bd-Id'
p172
S'14679746643520067712'
p173
tp174
aa(lp175
S'x-bd-oc'
p176
a(S'X-Bd-Oc'
p177
S'16d95cfb2d7ba0f00006a58eab6d1ccb'
p178
tp179
aa(lp180
S'x-bd-ul'
p181
a(S'X-Bd-Ul'
p182
S'859e6910c0cf279f87e307833f483658'
p183
tp184
aa(lp185
S'x-xss-protection'
p186
a(S'X-Xss-Protection'
p187
S'1; mode=block'
p188
tp189
aa(lp190
S'content-length'
p191
a(S'Content-Length'
p192
S'0'
p193
tp194
aatp195
Rp196
sbsS'reason'
p197
S'Found'
p198
sS'history'
p199
(lp200
sb.