(lp0
(dp1
Vdomain
p2
V.baidu.com
p3
sVname
p4
VH_PS_PSSID
p5
sVvalue
p6
V25641_1458_22533_13550_21091_20930
p7
sVpath
p8
V/
p9
sVhttpOnly
p10
I00
sVsecure
p11
I00
sa(dp12
Vdomain
p13
V.baidu.com
p14
sVsecure
p15
I00
sVvalue
p16
V11C103BE67417C5C14506EB8FC0E02AC:FG=1
p17
sVexpiry
p18
F3664787580.207286
sVpath
p19
g9
sVhttpOnly
p20
I00
sVname
p21
VBAIDUID
p22
sa(dp23
Vdomain
p24
V.tieba.baidu.com
p25
sVsecure
p26
I00
sVvalue
p27
Vcd490761868a37dcb4ca5b64
p28
sVexpiry
p29
F1609430398.493182
sVpath
p30
g9
sVhttpOnly
p31
I00
sVname
p32
VTIEBA_USERTYPE
p33
sa(dp34
Vdomain
p35
V.tieba.baidu.com
p36
sVsecure
p37
I00
sVvalue
p38
V463879fcd60e8ceccbae50b9
p39
sVexpiry
p40
F1609430397.908844
sVpath
p41
g9
sVhttpOnly
p42
I00
sVname
p43
VTIEBAUID
p44
sa(dp45
Vdomain
p46
V.baidu.com
p47
sVsecure
p48
I00
sVvalue
p49
V1517303934
p50
sVexpiry
p51
F3664787580.207366
sVpath
p52
g9
sVhttpOnly
p53
I00
sVname
p54
VPSTM
p55
sa(dp56
Vdomain
p57
V.baidu.com
p58
sVsecure
p59
I00
sVvalue
p60
V11C103BE67417C5C14506EB8FC0E02AC
p61
sVexpiry
p62
F3664787580.207333
sVpath
p63
g9
sVhttpOnly
p64
I00
sVname
p65
VBIDUPSID
p66
sa(dp67
Vdomain
p68
V.baidu.com
p69
sVsecure
p70
I00
sVvalue
p71
Vae9df22dec3bb277af57c39321e97866
p72
sVexpiry
p73
L2556057600L
sVpath
p74
g9
sVhttpOnly
p75
I00
sVname
p76
VFP_UID
p77
sa(dp78
Vdomain
p79
V.tieba.baidu.com
p80
sVname
p81
VHm_lpvt_287705c8d9e2073d13275b18dbd746dc
p82
sVvalue
p83
V1517303962
p84
sVpath
p85
g9
sVhttpOnly
p86
I00
sVsecure
p87
I00
sa(dp88
Vdomain
p89
V.baidu.com
p90
sVsecure
p91
I00
sVvalue
p92
VFRV3M0SmRqQ0pTSHZLLVM1V0laMldZWW5kMkxNNWFFRFJSNm05QkszU1F4WmRhQVFBQUFBJCQAAAAAAAAAAAEAAABLe7LMbG92Zcbv5sPmwwAAAAAAAAAAAAAAAAAAAAAAAAAAAAAAAAAAAAAAAAAAAAAAAAAAAAAAAAAAAAAAAAAAAAAAAJA4cFqQOHBaQl
p93
sVexpiry
p94
F1776503950.994338
sVpath
p95
g9
sVhttpOnly
p96
I01
sVname
p97
VBDUSS
p98
sa(dp99
Vdomain
p100
V.tieba.baidu.com
p101
sVsecure
p102
I00
sVvalue
p103
V86e90952b1c7900500f7ccbffb0a09d3d3199a6a21a002e9cfd412b0c4614e60
p104
sVexpiry
p105
F1519895954.351066
sVpath
p106
g9
sVhttpOnly
p107
I01
sVname
p108
VSTOKEN
p109
sa(dp110
Vdomain
p111
Vtieba.baidu.com
p112
sVname
p113
Vwise_device
p114
sVvalue
p115
V0
p116
sVpath
p117
g9
sVhttpOnly
p118
I00
sVsecure
p119
I00
sa(dp120
Vdomain
p121
V.tieba.baidu.com
p122
sVsecure
p123
I00
sVvalue
p124
V1517303956
p125
sVexpiry
p126
I1548839956
sVpath
p127
g9
sVhttpOnly
p128
I00
sVname
p129
VHm_lvt_98b9d8c2fd6608d564bf2ac2ae642948
p130
sa(dp131
Vdomain
p132
V.tieba.baidu.com
p133
sVname
p134
VHm_lpvt_98b9d8c2fd6608d564bf2ac2ae642948
p135
sVvalue
p136
V1517303956
p137
sVpath
p138
g9
sVhttpOnly
p139
I00
sVsecure
p140
I00
sa(dp141
Vdomain
p142
Vtieba.baidu.com
p143
sVsecure
p144
I00
sVvalue
p145
V1517303958795
p146
sVexpiry
p147
I1643534358
sVpath
p148
g9
sVhttpOnly
p149
I00
sVname
p150
Vbdshare_firstime
p151
sa(dp152
Vdomain
p153
V.tieba.baidu.com
p154
sVsecure
p155
I00
sVvalue
p156
V1517303962
p157
sVexpiry
p158
I1548839961
sVpath
p159
g9
sVhttpOnly
p160
I00
sVname
p161
VHm_lvt_287705c8d9e2073d13275b18dbd746dc
p162
sa.